target datalayout = "e-m:e-p270:32:32-p271:32:32-p272:64:64-i64:64-i128:128-f80:128-n8:16:32:64-S128"
target triple = "x86_64-pc-linux-gnu"

%class.Node = type <{ ptr, ptr, ptr, i32, i32, i32, i32, i32, i32, i32, [4 x i8] }>
%class.VectorSet = type { i32, ptr, i32, ptr }
%class.Node_Stack = type { ptr, ptr, ptr, ptr }
%"struct.Node_Stack::INode" = type { ptr, i32 }
%class.Node_Backward_Iterator = type { ptr, ptr, ptr }

; Function Attrs: mustprogress nounwind uwtable
define linkonce_odr hidden void @_ZN9VectorSet5resetEv(ptr noundef nonnull align 8 dereferenceable(32) %0) #1 comdat align 2 {
  %2 = alloca ptr, align 8
  store ptr %0, ptr %2, align 8
  %3 = load ptr, ptr %2, align 8
  %4 = getelementptr inbounds %class.VectorSet, ptr %3, i32 0, i32 0
  store i32 0, ptr %4, align 8
  ret void
}

; Function Attrs: mustprogress nounwind uwtable
define linkonce_odr hidden void @_ZN9VectorSet5clearEv(ptr noundef nonnull align 8 dereferenceable(32) %0) #1 comdat align 2 {
  %2 = alloca ptr, align 8
  store ptr %0, ptr %2, align 8
  %3 = load ptr, ptr %2, align 8
  call void @_ZN9VectorSet5resetEv(ptr noundef nonnull align 8 dereferenceable(32) %3)
  ret void
}

; Function Attrs: mustprogress nounwind uwtable
define linkonce_odr hidden void @_ZN10Node_Stack4pushEP4Nodej(ptr noundef nonnull align 8 dereferenceable(32) %0, ptr noundef %1, i32 noundef %2) #1 comdat align 2 {
  %4 = alloca ptr, align 8
  %5 = alloca ptr, align 8
  %6 = alloca i32, align 4
  %7 = alloca ptr, align 8
  store ptr %0, ptr %4, align 8
  store ptr %1, ptr %5, align 8
  store i32 %2, ptr %6, align 4
  %8 = load ptr, ptr %4, align 8
  %9 = getelementptr inbounds %class.Node_Stack, ptr %8, i32 0, i32 0
  %10 = load ptr, ptr %9, align 8
  %11 = getelementptr inbounds %"struct.Node_Stack::INode", ptr %10, i32 1
  store ptr %11, ptr %9, align 8
  %12 = getelementptr inbounds %class.Node_Stack, ptr %8, i32 0, i32 0
  %13 = load ptr, ptr %12, align 8
  %14 = getelementptr inbounds %class.Node_Stack, ptr %8, i32 0, i32 1
  %15 = load ptr, ptr %14, align 8
  %16 = icmp uge ptr %13, %15
  br i1 %16, label %17, label %18

17:                                               ; preds = %3
  call void @_ZN10Node_Stack4growEv(ptr noundef nonnull align 8 dereferenceable(32) %8)
  br label %18

18:                                               ; preds = %17, %3
  %19 = getelementptr inbounds %class.Node_Stack, ptr %8, i32 0, i32 0
  %20 = load ptr, ptr %19, align 8
  store ptr %20, ptr %7, align 8
  %21 = load ptr, ptr %5, align 8
  %22 = load ptr, ptr %7, align 8
  %23 = getelementptr inbounds %"struct.Node_Stack::INode", ptr %22, i32 0, i32 0
  store ptr %21, ptr %23, align 8
  %24 = load i32, ptr %6, align 4
  %25 = load ptr, ptr %7, align 8
  %26 = getelementptr inbounds %"struct.Node_Stack::INode", ptr %25, i32 0, i32 1
  store i32 %24, ptr %26, align 8
  ret void
}

; Function Attrs: mustprogress nounwind uwtable
define linkonce_odr hidden noundef i32 @_ZNK4Node6outcntEv(ptr noundef nonnull align 8 dereferenceable(52) %0) #1 comdat align 2 {
  %2 = alloca ptr, align 8
  store ptr %0, ptr %2, align 8
  %3 = load ptr, ptr %2, align 8
  %4 = getelementptr inbounds %class.Node, ptr %3, i32 0, i32 5
  %5 = load i32, ptr %4, align 8
  ret i32 %5
}

; Function Attrs: mustprogress nounwind uwtable
define linkonce_odr hidden void @_ZN10Node_Stack5clearEv(ptr noundef nonnull align 8 dereferenceable(32) %0) #1 comdat align 2 {
  %2 = alloca ptr, align 8
  store ptr %0, ptr %2, align 8
  %3 = load ptr, ptr %2, align 8
  %4 = getelementptr inbounds %class.Node_Stack, ptr %3, i32 0, i32 2
  %5 = load ptr, ptr %4, align 8
  %6 = getelementptr inbounds %"struct.Node_Stack::INode", ptr %5, i64 -1
  %7 = getelementptr inbounds %class.Node_Stack, ptr %3, i32 0, i32 0
  store ptr %6, ptr %7, align 8
  ret void
}

; Function Attrs: mustprogress nounwind uwtable
define hidden void @_ZN22Node_Backward_IteratorC2EP4NodeR9VectorSetR10Node_StackR8PhaseCFG(ptr noundef nonnull align 8 dereferenceable(24) %0, ptr noundef %1, ptr noundef nonnull align 8 dereferenceable(32) %2, ptr noundef nonnull align 8 dereferenceable(32) %3, ptr noundef nonnull align 8 dereferenceable(160) %4) unnamed_addr #1 align 2 {
  %6 = alloca ptr, align 8
  %7 = alloca ptr, align 8
  %8 = alloca ptr, align 8
  %9 = alloca ptr, align 8
  %10 = alloca ptr, align 8
  store ptr %0, ptr %6, align 8
  store ptr %1, ptr %7, align 8
  store ptr %2, ptr %8, align 8
  store ptr %3, ptr %9, align 8
  store ptr %4, ptr %10, align 8
  %11 = load ptr, ptr %6, align 8
  %12 = getelementptr inbounds %class.Node_Backward_Iterator, ptr %11, i32 0, i32 0
  %13 = load ptr, ptr %8, align 8
  store ptr %13, ptr %12, align 8
  %14 = getelementptr inbounds %class.Node_Backward_Iterator, ptr %11, i32 0, i32 1
  %15 = load ptr, ptr %9, align 8
  store ptr %15, ptr %14, align 8
  %16 = getelementptr inbounds %class.Node_Backward_Iterator, ptr %11, i32 0, i32 2
  %17 = load ptr, ptr %10, align 8
  store ptr %17, ptr %16, align 8
  %18 = load ptr, ptr %9, align 8
  call void @_ZN10Node_Stack5clearEv(ptr noundef nonnull align 8 dereferenceable(32) %18)
  %19 = load ptr, ptr %9, align 8
  %20 = load ptr, ptr %7, align 8
  %21 = load ptr, ptr %7, align 8
  %22 = call noundef i32 @_ZNK4Node6outcntEv(ptr noundef nonnull align 8 dereferenceable(52) %21)
  call void @_ZN10Node_Stack4pushEP4Nodej(ptr noundef nonnull align 8 dereferenceable(32) %19, ptr noundef %20, i32 noundef %22)
  %23 = load ptr, ptr %8, align 8
  call void @_ZN9VectorSet5clearEv(ptr noundef nonnull align 8 dereferenceable(32) %23)
  ret void
}