; Function Attrs: mustprogress nounwind uwtable
define hidden void @_ZN22Node_Backward_IteratorC2EP4NodeR9VectorSetR10Node_StackR8PhaseCFG(ptr nocapture noundef nonnull writeonly align 8 dereferenceable(24) %0, ptr noundef %1, ptr noundef nonnull align 8 dereferenceable(32) %2, ptr noundef nonnull align 8 dereferenceable(32) %3, ptr noundef nonnull align 8 dereferenceable(160) %4) unnamed_addr #0 align 2 {
  store ptr %2, ptr %0, align 8
  %6 = getelementptr inbounds i8, ptr %0, i64 8
  store ptr %3, ptr %6, align 8
  %7 = getelementptr inbounds i8, ptr %0, i64 16
  store ptr %4, ptr %7, align 8
  %8 = getelementptr inbounds i8, ptr %3, i64 16
  %9 = load ptr, ptr %8, align 8
  %10 = getelementptr inbounds i8, ptr %9, i64 -16
  store ptr %10, ptr %3, align 8
  %11 = getelementptr inbounds i8, ptr %1, i64 32
  %12 = load i32, ptr %11, align 8
  store ptr %9, ptr %3, align 8
  %13 = getelementptr inbounds i8, ptr %3, i64 8
  %14 = load ptr, ptr %13, align 8
  %.not.i = icmp ult ptr %9, %14
  br i1 %.not.i, label %_ZN10Node_Stack4pushEP4Nodej.exit, label %15

15:                                               ; preds = %5
  tail call void @_ZN10Node_Stack4growEv(ptr noundef nonnull align 8 dereferenceable(32) %3) #14
  %.pre.i = load ptr, ptr %3, align 8
  br label %_ZN10Node_Stack4pushEP4Nodej.exit

_ZN10Node_Stack4pushEP4Nodej.exit:                ; preds = %5, %15
  %16 = phi ptr [ %.pre.i, %15 ], [ %9, %5 ]
  store ptr %1, ptr %16, align 8
  %17 = getelementptr inbounds i8, ptr %16, i64 8
  store i32 %12, ptr %17, align 8
  store i32 0, ptr %2, align 8
  ret void
}